target datalayout = "e-m:e-p270:32:32-p271:32:32-p272:64:64-i64:64-i128:128-f80:128-n8:16:32:64-S128"
target triple = "x86_64-pc-linux-gnu"

%struct.RBasic = type { i64, i64 }
%struct.RArray = type { %struct.RBasic, %union.anon.16 }
%union.anon.16 = type { %struct.anon.17 }
%struct.anon.17 = type { i64, %union.anon.18, ptr }
%union.anon.18 = type { i64 }

@.str.3 = private unnamed_addr constant [3 x i8] c"so\00", align 1
@.str.4 = private unnamed_addr constant [4 x i8] c".so\00", align 1
@.str.5 = private unnamed_addr constant [3 x i8] c".o\00", align 1
@rb_ext_resolve_symbol.rbimpl_id = internal global i64 0, align 8
@ruby_dln_libmap = internal global i64 0, align 8
@ruby_current_vm_ptr = external global ptr, align 8

; Function Attrs: inlinehint nounwind sspstrong willreturn memory(none) uwtable
define internal i64 @rbimpl_fix2long_by_idiv(i64 noundef %0) #9 {
  %2 = alloca i64, align 8
  %3 = alloca i64, align 8
  %4 = alloca i64, align 8
  %5 = alloca i64, align 8
  store i64 %0, ptr %2, align 8, !tbaa !12
  call void @llvm.lifetime.start.p0(i64 8, ptr %3) #8
  %6 = load i64, ptr %2, align 8, !tbaa !12
  %7 = sub i64 %6, 1
  store i64 %7, ptr %3, align 8, !tbaa !12
  call void @llvm.lifetime.start.p0(i64 8, ptr %4) #8
  %8 = load i64, ptr %3, align 8, !tbaa !12
  %9 = sdiv i64 %8, 2
  store i64 %9, ptr %4, align 8, !tbaa !12
  call void @llvm.lifetime.start.p0(i64 8, ptr %5) #8
  %10 = load i64, ptr %4, align 8, !tbaa !12
  store i64 %10, ptr %5, align 8, !tbaa !12
  %11 = load i64, ptr %5, align 8, !tbaa !12
  call void @llvm.lifetime.end.p0(i64 8, ptr %5) #8
  call void @llvm.lifetime.end.p0(i64 8, ptr %4) #8
  call void @llvm.lifetime.end.p0(i64 8, ptr %3) #8
  ret i64 %11
}

; Function Attrs: inlinehint nounwind sspstrong willreturn memory(none) uwtable
define internal i64 @rbimpl_fix2long_by_shift(i64 noundef %0) #9 {
  %2 = alloca i64, align 8
  %3 = alloca i64, align 8
  %4 = alloca i64, align 8
  %5 = alloca i64, align 8
  store i64 %0, ptr %2, align 8, !tbaa !12
  call void @llvm.lifetime.start.p0(i64 8, ptr %3) #8
  %6 = load i64, ptr %2, align 8, !tbaa !12
  store i64 %6, ptr %3, align 8, !tbaa !12
  call void @llvm.lifetime.start.p0(i64 8, ptr %4) #8
  %7 = load i64, ptr %3, align 8, !tbaa !12
  %8 = ashr i64 %7, 1
  store i64 %8, ptr %4, align 8, !tbaa !12
  call void @llvm.lifetime.start.p0(i64 8, ptr %5) #8
  %9 = load i64, ptr %4, align 8, !tbaa !12
  store i64 %9, ptr %5, align 8, !tbaa !12
  %10 = load i64, ptr %5, align 8, !tbaa !12
  call void @llvm.lifetime.end.p0(i64 8, ptr %5) #8
  call void @llvm.lifetime.end.p0(i64 8, ptr %4) #8
  call void @llvm.lifetime.end.p0(i64 8, ptr %3) #8
  ret i64 %10
}

; Function Attrs: inlinehint nounwind sspstrong willreturn memory(none) uwtable
define internal zeroext i1 @rbimpl_right_shift_is_arithmetic_p() #9 {
  ret i1 true
}

; Function Attrs: inlinehint nounwind sspstrong willreturn memory(read) uwtable
define internal i64 @RB_FL_TEST_RAW(i64 noundef %0, i64 noundef %1) #12 {
  %3 = alloca i64, align 8
  %4 = alloca i64, align 8
  store i64 %0, ptr %3, align 8, !tbaa !12
  store i64 %1, ptr %4, align 8, !tbaa !12
  %5 = load i64, ptr %3, align 8, !tbaa !12
  %6 = inttoptr i64 %5 to ptr
  %7 = getelementptr inbounds nuw %struct.RBasic, ptr %6, i32 0, i32 0
  %8 = load i64, ptr %7, align 8, !tbaa !139
  %9 = load i64, ptr %4, align 8, !tbaa !12
  %10 = and i64 %8, %9
  ret i64 %10
}

; Function Attrs: inlinehint nounwind sspstrong willreturn memory(none) uwtable
define internal i64 @rb_fix2long(i64 noundef %0) #9 {
  %2 = alloca i64, align 8
  %3 = alloca i64, align 8
  store i64 %0, ptr %3, align 8, !tbaa !12
  %4 = call zeroext i1 @rbimpl_right_shift_is_arithmetic_p() #30
  br i1 %4, label %5, label %8

5:                                                ; preds = %1
  %6 = load i64, ptr %3, align 8, !tbaa !12
  %7 = call i64 @rbimpl_fix2long_by_shift(i64 noundef %6) #30
  store i64 %7, ptr %2, align 8
  br label %11

8:                                                ; preds = %1
  %9 = load i64, ptr %3, align 8, !tbaa !12
  %10 = call i64 @rbimpl_fix2long_by_idiv(i64 noundef %9) #30
  store i64 %10, ptr %2, align 8
  br label %11

11:                                               ; preds = %8, %5
  %12 = load i64, ptr %2, align 8
  ret i64 %12
}

; Function Attrs: inlinehint nounwind sspstrong willreturn memory(none) uwtable
define internal zeroext i1 @RB_FIXNUM_P(i64 noundef %0) #9 {
  %2 = alloca i64, align 8
  store i64 %0, ptr %2, align 8, !tbaa !12
  %3 = load i64, ptr %2, align 8, !tbaa !12
  %4 = and i64 %3, 1
  %5 = icmp ne i64 %4, 0
  ret i1 %5
}

; Function Attrs: inlinehint nounwind sspstrong willreturn memory(read) uwtable
define internal i64 @rb_intern_const(ptr noundef nonnull %0) #12 {
  %2 = alloca ptr, align 8
  %3 = alloca i64, align 8
  store ptr %0, ptr %2, align 8, !tbaa !43
  call void @llvm.lifetime.start.p0(i64 8, ptr %3) #8
  %4 = load ptr, ptr %2, align 8, !tbaa !43
  %5 = call i64 @strlen(ptr noundef %4) #29
  store i64 %5, ptr %3, align 8, !tbaa !12
  %6 = load ptr, ptr %2, align 8, !tbaa !43
  %7 = load i64, ptr %3, align 8, !tbaa !12
  %8 = call i64 @rb_intern2(ptr noundef %6, i64 noundef %7)
  call void @llvm.lifetime.end.p0(i64 8, ptr %3) #8
  ret i64 %8
}

; Function Attrs: inlinehint nounwind sspstrong willreturn memory(read) uwtable
define internal i64 @RARRAY_EMBED_LEN(i64 noundef %0) #12 {
  %2 = alloca i64, align 8
  %3 = alloca i64, align 8
  store i64 %0, ptr %2, align 8, !tbaa !12
  call void @llvm.lifetime.start.p0(i64 8, ptr %3) #8
  %4 = load i64, ptr %2, align 8, !tbaa !12
  %5 = inttoptr i64 %4 to ptr
  %6 = getelementptr inbounds nuw %struct.RBasic, ptr %5, i32 0, i32 0
  %7 = load i64, ptr %6, align 8, !tbaa !139
  store i64 %7, ptr %3, align 8, !tbaa !12
  %8 = load i64, ptr %3, align 8, !tbaa !12
  %9 = and i64 %8, 4161536
  store i64 %9, ptr %3, align 8, !tbaa !12
  %10 = load i64, ptr %3, align 8, !tbaa !12
  %11 = lshr i64 %10, 15
  store i64 %11, ptr %3, align 8, !tbaa !12
  %12 = load i64, ptr %3, align 8, !tbaa !12
  call void @llvm.lifetime.end.p0(i64 8, ptr %3) #8
  ret i64 %12
}

; Function Attrs: inlinehint nounwind sspstrong willreturn memory(read) uwtable
define internal zeroext i1 @RB_FL_ANY_RAW(i64 noundef %0, i64 noundef %1) #12 {
  %3 = alloca i64, align 8
  %4 = alloca i64, align 8
  store i64 %0, ptr %3, align 8, !tbaa !12
  store i64 %1, ptr %4, align 8, !tbaa !12
  %5 = load i64, ptr %3, align 8, !tbaa !12
  %6 = load i64, ptr %4, align 8, !tbaa !12
  %7 = call i64 @RB_FL_TEST_RAW(i64 noundef %5, i64 noundef %6) #29
  %8 = icmp ne i64 %7, 0
  ret i1 %8
}

; Function Attrs: inlinehint nounwind sspstrong uwtable
define internal i64 @rbimpl_strlen(ptr noundef nonnull %0) #1 {
  %2 = alloca ptr, align 8
  store ptr %0, ptr %2, align 8, !tbaa !43
  %3 = load ptr, ptr %2, align 8, !tbaa !43
  %4 = call i64 @strlen(ptr noundef %3) #29
  ret i64 %4
}

; Function Attrs: inlinehint nounwind sspstrong uwtable
define internal i64 @rb_num2long_inline(i64 noundef %0) #1 {
  %2 = alloca i64, align 8
  %3 = alloca i64, align 8
  store i64 %0, ptr %3, align 8, !tbaa !12
  %4 = load i64, ptr %3, align 8, !tbaa !12
  %5 = call zeroext i1 @RB_FIXNUM_P(i64 noundef %4) #30
  br i1 %5, label %6, label %9

6:                                                ; preds = %1
  %7 = load i64, ptr %3, align 8, !tbaa !12
  %8 = call i64 @rb_fix2long(i64 noundef %7) #30
  store i64 %8, ptr %2, align 8
  br label %12

9:                                                ; preds = %1
  %10 = load i64, ptr %3, align 8, !tbaa !12
  %11 = call i64 @rb_num2long(i64 noundef %10)
  store i64 %11, ptr %2, align 8
  br label %12

12:                                               ; preds = %9, %6
  %13 = load i64, ptr %2, align 8
  ret i64 %13
}

; Function Attrs: inlinehint nounwind sspstrong memory(argmem: readwrite, inaccessiblemem: readwrite) uwtable
define internal i64 @rbimpl_intern_const(ptr noundef nonnull %0, ptr noundef nonnull %1) #11 {
  %3 = alloca ptr, align 8
  %4 = alloca ptr, align 8
  store ptr %0, ptr %3, align 8, !tbaa !48
  store ptr %1, ptr %4, align 8, !tbaa !43
  br label %5

5:                                                ; preds = %10, %2
  %6 = load ptr, ptr %3, align 8, !tbaa !48
  %7 = load i64, ptr %6, align 8, !tbaa !12
  %8 = icmp ne i64 %7, 0
  %9 = xor i1 %8, true
  br i1 %9, label %10, label %14

10:                                               ; preds = %5
  %11 = load ptr, ptr %4, align 8, !tbaa !43
  %12 = call i64 @rb_intern_const(ptr noundef %11) #29
  %13 = load ptr, ptr %3, align 8, !tbaa !48
  store i64 %12, ptr %13, align 8, !tbaa !12
  br label %5, !llvm.loop !79

14:                                               ; preds = %5
  %15 = load ptr, ptr %3, align 8, !tbaa !48
  %16 = load i64, ptr %15, align 8, !tbaa !12
  ret i64 %16
}

; Function Attrs: inlinehint nounwind sspstrong willreturn memory(read) uwtable
define internal i64 @rb_array_len(i64 noundef %0) #12 {
  %2 = alloca i64, align 8
  %3 = alloca i64, align 8
  store i64 %0, ptr %3, align 8, !tbaa !12
  %4 = load i64, ptr %3, align 8, !tbaa !12
  %5 = call zeroext i1 @RB_FL_ANY_RAW(i64 noundef %4, i64 noundef 8192) #29
  br i1 %5, label %6, label %9

6:                                                ; preds = %1
  %7 = load i64, ptr %3, align 8, !tbaa !12
  %8 = call i64 @RARRAY_EMBED_LEN(i64 noundef %7) #29
  store i64 %8, ptr %2, align 8
  br label %15

9:                                                ; preds = %1
  %10 = load i64, ptr %3, align 8, !tbaa !12
  %11 = inttoptr i64 %10 to ptr
  %12 = getelementptr inbounds nuw %struct.RArray, ptr %11, i32 0, i32 1
  %13 = getelementptr inbounds nuw %struct.anon.17, ptr %12, i32 0, i32 0
  %14 = load i64, ptr %13, align 8, !tbaa !47
  store i64 %14, ptr %2, align 8
  br label %15

15:                                               ; preds = %9, %6
  %16 = load i64, ptr %2, align 8
  ret i64 %16
}

; Function Attrs: inlinehint nounwind sspstrong uwtable
define internal ptr @rb_current_vm() #1 {
  %1 = load ptr, ptr @ruby_current_vm_ptr, align 8, !tbaa !7
  ret ptr %1
}

; Function Attrs: inlinehint nounwind sspstrong uwtable
define internal i64 @rbimpl_str_cat_cstr(i64 noundef %0, ptr noundef nonnull %1) #1 {
  %3 = alloca i64, align 8
  %4 = alloca ptr, align 8
  %5 = alloca i64, align 8
  store i64 %0, ptr %3, align 8, !tbaa !12
  store ptr %1, ptr %4, align 8, !tbaa !43
  call void @llvm.lifetime.start.p0(i64 8, ptr %5) #8
  %6 = load ptr, ptr %4, align 8, !tbaa !43
  %7 = call i64 @rbimpl_strlen(ptr noundef %6)
  store i64 %7, ptr %5, align 8, !tbaa !12
  %8 = load i64, ptr %3, align 8, !tbaa !12
  %9 = load ptr, ptr %4, align 8, !tbaa !43
  %10 = load i64, ptr %5, align 8, !tbaa !12
  %11 = call i64 @rb_str_cat(i64 noundef %8, ptr noundef %9, i64 noundef %10)
  call void @llvm.lifetime.end.p0(i64 8, ptr %5) #8
  ret i64 %11
}

; Function Attrs: inlinehint nounwind sspstrong willreturn memory(none) uwtable
define internal zeroext i1 @RB_NIL_P(i64 noundef %0) #9 {
  %2 = alloca i64, align 8
  store i64 %0, ptr %2, align 8, !tbaa !12
  %3 = load i64, ptr %2, align 8, !tbaa !12
  %4 = icmp eq i64 %3, 4
  ret i1 %4
}

; Function Attrs: nounwind sspstrong uwtable
define dso_local ptr @rb_ext_resolve_symbol(ptr noundef %0, ptr noundef %1) #0 {
  %3 = alloca ptr, align 8
  %4 = alloca ptr, align 8
  %5 = alloca ptr, align 8
  %6 = alloca i64, align 8
  %7 = alloca i64, align 8
  %8 = alloca i64, align 8
  %9 = alloca ptr, align 8
  %10 = alloca i64, align 8
  %11 = alloca i32, align 4
  %12 = alloca i64, align 8
  store ptr %0, ptr %4, align 8, !tbaa !43
  store ptr %1, ptr %5, align 8, !tbaa !43
  call void @llvm.lifetime.start.p0(i64 8, ptr %6) #8
  call void @llvm.lifetime.start.p0(i64 8, ptr %7) #8
  call void @llvm.lifetime.start.p0(i64 8, ptr %8) #8
  call void @llvm.lifetime.start.p0(i64 8, ptr %9) #8
  call void @llvm.lifetime.start.p0(i64 8, ptr %10) #8
  %13 = load ptr, ptr %4, align 8, !tbaa !43
  %14 = call i64 @rb_str_new_cstr(ptr noundef %13)
  store i64 %14, ptr %10, align 8, !tbaa !12
  %15 = load i64, ptr %10, align 8, !tbaa !12
  %16 = call i64 @rb_resolve_feature_path(i64 noundef 0, i64 noundef %15)
  store i64 %16, ptr %7, align 8, !tbaa !12
  %17 = load i64, ptr %7, align 8, !tbaa !12
  %18 = call zeroext i1 @RB_NIL_P(i64 noundef %17) #30
  br i1 %18, label %19, label %44

19:                                               ; preds = %2
  %20 = load ptr, ptr %4, align 8, !tbaa !43
  %21 = call ptr @strrchr(ptr noundef %20, i32 noundef 46) #29
  store ptr %21, ptr %9, align 8, !tbaa !43
  %22 = load ptr, ptr %9, align 8, !tbaa !43
  %23 = icmp ne ptr %22, null
  br i1 %23, label %24, label %32

24:                                               ; preds = %19
  %25 = load ptr, ptr %9, align 8, !tbaa !43
  %26 = call i32 @strcmp(ptr noundef %25, ptr noundef @.str.4) #29
  %27 = icmp eq i32 %26, 0
  br i1 %27, label %35, label %28

28:                                               ; preds = %24
  %29 = load ptr, ptr %9, align 8, !tbaa !43
  %30 = call i32 @strcmp(ptr noundef %29, ptr noundef @.str.5) #29
  %31 = icmp eq i32 %30, 0
  br i1 %31, label %35, label %32

32:                                               ; preds = %28, %19
  %33 = load i64, ptr %10, align 8, !tbaa !12
  %34 = call i64 @rbimpl_str_cat_cstr(i64 noundef %33, ptr noundef @.str.4)
  br label %35

35:                                               ; preds = %32, %28, %24
  %36 = call ptr @rb_current_vm()
  %37 = load ptr, ptr %4, align 8, !tbaa !43
  %38 = call i32 @rb_feature_p(ptr noundef %36, ptr noundef %37, ptr noundef null, i32 noundef 0, i32 noundef 0, ptr noundef null)
  %39 = icmp ne i32 %38, 0
  br i1 %39, label %40, label %43

40:                                               ; preds = %35
  %41 = load ptr, ptr %5, align 8, !tbaa !43
  %42 = call ptr @dln_symbol(ptr noundef null, ptr noundef %41)
  store ptr %42, ptr %3, align 8
  store i32 1, ptr %11, align 4
  br label %71

43:                                               ; preds = %35
  store ptr null, ptr %3, align 8
  store i32 1, ptr %11, align 4
  br label %71

44:                                               ; preds = %2
  %45 = load i64, ptr %7, align 8, !tbaa !12
  %46 = call i64 @rb_array_len(i64 noundef %45) #29
  %47 = icmp ne i64 %46, 2
  br i1 %47, label %55, label %48

48:                                               ; preds = %44
  %49 = load i64, ptr %7, align 8, !tbaa !12
  %50 = call i64 @rb_ary_entry(i64 noundef %49, i64 noundef 0) #29
  %51 = call i64 @rbimpl_intern_const(ptr noundef @rb_ext_resolve_symbol.rbimpl_id, ptr noundef @.str.3) #32
  store i64 %51, ptr %12, align 8, !tbaa !12
  %52 = load i64, ptr %12, align 8, !tbaa !12
  %53 = call i64 @rb_id2sym(i64 noundef %52)
  %54 = icmp ne i64 %50, %53
  br i1 %54, label %55, label %56

55:                                               ; preds = %48, %44
  store ptr null, ptr %3, align 8
  store i32 1, ptr %11, align 4
  br label %71

56:                                               ; preds = %48
  %57 = load i64, ptr %7, align 8, !tbaa !12
  %58 = call i64 @rb_ary_entry(i64 noundef %57, i64 noundef 1) #29
  store i64 %58, ptr %8, align 8, !tbaa !12
  %59 = load i64, ptr @ruby_dln_libmap, align 8, !tbaa !12
  %60 = load i64, ptr %8, align 8, !tbaa !12
  %61 = call i64 @rb_hash_lookup(i64 noundef %59, i64 noundef %60)
  store i64 %61, ptr %6, align 8, !tbaa !12
  %62 = load i64, ptr %6, align 8, !tbaa !12
  %63 = call zeroext i1 @RB_NIL_P(i64 noundef %62) #30
  br i1 %63, label %64, label %65

64:                                               ; preds = %56
  store ptr null, ptr %3, align 8
  store i32 1, ptr %11, align 4
  br label %71

65:                                               ; preds = %56
  %66 = load i64, ptr %6, align 8, !tbaa !12
  %67 = call i64 @rb_num2long_inline(i64 noundef %66)
  %68 = inttoptr i64 %67 to ptr
  %69 = load ptr, ptr %5, align 8, !tbaa !43
  %70 = call ptr @dln_symbol(ptr noundef %68, ptr noundef %69)
  store ptr %70, ptr %3, align 8
  store i32 1, ptr %11, align 4
  br label %71

71:                                               ; preds = %65, %64, %55, %43, %40
  call void @llvm.lifetime.end.p0(i64 8, ptr %10) #8
  call void @llvm.lifetime.end.p0(i64 8, ptr %9) #8
  call void @llvm.lifetime.end.p0(i64 8, ptr %8) #8
  call void @llvm.lifetime.end.p0(i64 8, ptr %7) #8
  call void @llvm.lifetime.end.p0(i64 8, ptr %6) #8
  %72 = load ptr, ptr %3, align 8
  ret ptr %72
}