; Function Attrs: nounwind sspstrong uwtable
define dso_local ptr @rb_ext_resolve_symbol(ptr noundef %0, ptr noundef %1) local_unnamed_addr #0 {
  %3 = tail call i64 @rb_str_new_cstr(ptr noundef %0) #7
  %4 = tail call i64 @rb_resolve_feature_path(i64 poison, i64 noundef %3)
  %5 = icmp eq i64 %4, 4
  br i1 %5, label %6, label %21

6:                                                ; preds = %2
  %7 = tail call ptr @strrchr(ptr noundef nonnull dereferenceable(1) %0, i32 noundef 46) #25
  %.not20 = icmp eq ptr %7, null
  br i1 %.not20, label %.tail.thread, label %8

8:                                                ; preds = %6
  %9 = tail call i32 @strcmp(ptr noundef nonnull dereferenceable(1) %7, ptr noundef nonnull dereferenceable(4) @.str.4) #25
  %10 = icmp eq i32 %9, 0
  br i1 %10, label %18, label %sub_0

sub_0:                                            ; preds = %8
  %11 = load i8, ptr %7, align 1
  %.not25 = icmp eq i8 %11, 46
  br i1 %.not25, label %sub_1, label %.tail.thread

sub_1:                                            ; preds = %sub_0
  %12 = getelementptr inbounds nuw i8, ptr %7, i64 1
  %13 = load i8, ptr %12, align 1
  %.not26 = icmp eq i8 %13, 111
  br i1 %.not26, label %.tail, label %.tail.thread

.tail:                                            ; preds = %sub_1
  %14 = getelementptr inbounds nuw i8, ptr %7, i64 2
  %15 = load i8, ptr %14, align 1
  %16 = icmp eq i8 %15, 0
  br i1 %16, label %18, label %.tail.thread

.tail.thread:                                     ; preds = %sub_1, %sub_0, %.tail, %6
  %17 = tail call i64 @rb_str_cat(i64 noundef %3, ptr noundef nonnull @.str.4, i64 noundef 3) #7
  br label %18

18:                                               ; preds = %.tail.thread, %.tail, %8
  %19 = load ptr, ptr @ruby_current_vm_ptr, align 8, !tbaa !7
  %20 = tail call i32 @rb_feature_p(ptr noundef %19, ptr noundef nonnull %0, ptr noundef null, i32 noundef 0, i32 noundef 0, ptr noundef null)
  %.not21 = icmp eq i32 %20, 0
  br i1 %.not21, label %48, label %.sink.split

21:                                               ; preds = %2
  %22 = inttoptr i64 %4 to ptr
  %23 = load i64, ptr %22, align 8, !tbaa !44
  %24 = and i64 %23, 8192
  %.not.i = icmp eq i64 %24, 0
  br i1 %.not.i, label %28, label %25

25:                                               ; preds = %21
  %26 = lshr i64 %23, 15
  %27 = and i64 %26, 127
  br label %rb_array_len.exit

28:                                               ; preds = %21
  %29 = getelementptr inbounds nuw i8, ptr %22, i64 16
  %30 = load i64, ptr %29, align 8, !tbaa !43
  br label %rb_array_len.exit

rb_array_len.exit:                                ; preds = %25, %28
  %.0.i = phi i64 [ %27, %25 ], [ %30, %28 ]
  %.not = icmp eq i64 %.0.i, 2
  br i1 %.not, label %31, label %48

31:                                               ; preds = %rb_array_len.exit
  %32 = tail call i64 @rb_ary_entry(i64 noundef %4, i64 noundef 0) #25
  %.pr.i = load i64, ptr @rb_ext_resolve_symbol.rbimpl_id, align 8, !tbaa !42
  %.not4.i = icmp eq i64 %.pr.i, 0
  br i1 %.not4.i, label %.lr.ph.i, label %rbimpl_intern_const.exit

.lr.ph.i:                                         ; preds = %31, %.lr.ph.i
  %33 = tail call i64 @rb_intern2(ptr noundef nonnull @.str.3, i64 noundef 2) #7
  store i64 %33, ptr @rb_ext_resolve_symbol.rbimpl_id, align 8, !tbaa !42
  %.not.i22 = icmp eq i64 %33, 0
  br i1 %.not.i22, label %.lr.ph.i, label %rbimpl_intern_const.exit, !llvm.loop !92

rbimpl_intern_const.exit:                         ; preds = %.lr.ph.i, %31
  %.lcssa.i = phi i64 [ %.pr.i, %31 ], [ %33, %.lr.ph.i ]
  %34 = tail call i64 @rb_id2sym(i64 noundef %.lcssa.i) #7
  %.not19 = icmp eq i64 %32, %34
  br i1 %.not19, label %35, label %48

35:                                               ; preds = %rbimpl_intern_const.exit
  %36 = tail call i64 @rb_ary_entry(i64 noundef %4, i64 noundef 1) #25
  %37 = load i64, ptr @ruby_dln_libmap, align 8, !tbaa !42
  %38 = tail call i64 @rb_hash_lookup(i64 noundef %37, i64 noundef %36) #7
  %39 = icmp eq i64 %38, 4
  br i1 %39, label %48, label %40

40:                                               ; preds = %35
  %41 = and i64 %38, 1
  %.not.i23 = icmp eq i64 %41, 0
  br i1 %.not.i23, label %44, label %42

42:                                               ; preds = %40
  %43 = ashr i64 %38, 1
  br label %rb_num2long_inline.exit

44:                                               ; preds = %40
  %45 = tail call i64 @rb_num2long(i64 noundef %38) #7
  br label %rb_num2long_inline.exit

rb_num2long_inline.exit:                          ; preds = %42, %44
  %.0.i24 = phi i64 [ %43, %42 ], [ %45, %44 ]
  %46 = inttoptr i64 %.0.i24 to ptr
  br label %.sink.split

.sink.split:                                      ; preds = %18, %rb_num2long_inline.exit
  %.sink = phi ptr [ %46, %rb_num2long_inline.exit ], [ null, %18 ]
  %47 = tail call ptr @dln_symbol(ptr noundef %.sink, ptr noundef %1) #7
  br label %48

48:                                               ; preds = %.sink.split, %35, %rb_array_len.exit, %rbimpl_intern_const.exit, %18
  %.0 = phi ptr [ null, %18 ], [ null, %rbimpl_intern_const.exit ], [ null, %rb_array_len.exit ], [ null, %35 ], [ %47, %.sink.split ]
  ret ptr %.0
}